target datalayout = "e-m:e-p270:32:32-p271:32:32-p272:64:64-i64:64-i128:128-f80:128-n8:16:32:64-S128"
target triple = "x86_64-pc-linux-gnu"

%struct.BEValue = type { i8, i32, ptr, ptr, ptr }
%struct.Type_ = type { i32, ptr, ptr, ptr, %union.anon.86, ptr, ptr, %union.anon.88 }
%union.anon.86 = type { ptr }
%union.anon.88 = type { %struct.TypeFunction }
%struct.TypeFunction = type { ptr, ptr, ptr }
%struct.TypeArray = type { ptr, i32 }

@type_bool = external global ptr, align 8

; Function Attrs: nounwind uwtable
define dso_local void @llvm_value_set(ptr noundef %0, ptr noundef %1, ptr noundef %2) #0 {
  %4 = alloca i32, align 4
  %5 = alloca ptr, align 8
  %6 = alloca ptr, align 8
  %7 = alloca ptr, align 8
  %8 = alloca ptr, align 8
  %9 = alloca ptr, align 8
  %10 = alloca ptr, align 8
  %11 = alloca ptr, align 8
  %12 = alloca ptr, align 8
  store ptr %0, ptr %5, align 8
  store ptr %1, ptr %6, align 8
  store ptr %2, ptr %7, align 8
  %13 = load ptr, ptr %7, align 8
  %14 = call ptr @type_lowering(ptr noundef %13)
  store ptr %14, ptr %7, align 8
  %15 = load ptr, ptr %6, align 8
  %16 = load ptr, ptr %5, align 8
  %17 = getelementptr inbounds %struct.BEValue, ptr %16, i32 0, i32 3
  store ptr %15, ptr %17, align 8
  %18 = load ptr, ptr %7, align 8
  %19 = call i32 @type_abi_alignment(ptr noundef %18)
  %20 = load ptr, ptr %5, align 8
  %21 = getelementptr inbounds %struct.BEValue, ptr %20, i32 0, i32 1
  store i32 %19, ptr %21, align 4
  %22 = load ptr, ptr %5, align 8
  %23 = load i8, ptr %22, align 8
  %24 = and i8 %23, -32
  %25 = or i8 %24, 0
  store i8 %25, ptr %22, align 8
  %26 = load ptr, ptr %7, align 8
  %27 = load ptr, ptr %5, align 8
  %28 = getelementptr inbounds %struct.BEValue, ptr %27, i32 0, i32 2
  store ptr %26, ptr %28, align 8
  %29 = load ptr, ptr %7, align 8
  %30 = load ptr, ptr @type_bool, align 8
  %31 = icmp eq ptr %29, %30
  br i1 %31, label %32, label %47

32:                                               ; preds = %3
  %33 = load ptr, ptr %6, align 8
  %34 = call ptr @LLVMTypeOf(ptr noundef %33)
  store ptr %34, ptr %8, align 8
  %35 = load ptr, ptr %8, align 8
  %36 = call ptr @LLVMGetTypeContext(ptr noundef %35)
  store ptr %36, ptr %9, align 8
  %37 = load ptr, ptr %8, align 8
  %38 = load ptr, ptr %9, align 8
  %39 = call ptr @LLVMIntTypeInContext(ptr noundef %38, i32 noundef 1)
  %40 = icmp eq ptr %37, %39
  br i1 %40, label %41, label %46

41:                                               ; preds = %32
  %42 = load ptr, ptr %5, align 8
  %43 = load i8, ptr %42, align 8
  %44 = and i8 %43, -32
  %45 = or i8 %44, 3
  store i8 %45, ptr %42, align 8
  br label %46

46:                                               ; preds = %41, %32
  br label %47

47:                                               ; preds = %46, %3
  %48 = load ptr, ptr %7, align 8
  %49 = getelementptr inbounds %struct.Type_, ptr %48, i32 0, i32 0
  %50 = load i32, ptr %49, align 8
  store i32 %50, ptr %4, align 4
  %51 = load i32, ptr %4, align 4
  %52 = icmp eq i32 %51, 37
  br i1 %52, label %56, label %53

53:                                               ; preds = %47
  %54 = load i32, ptr %4, align 4
  %55 = icmp eq i32 %54, 38
  br label %56

56:                                               ; preds = %53, %47
  %57 = phi i1 [ true, %47 ], [ %55, %53 ]
  br i1 %57, label %58, label %82

58:                                               ; preds = %56
  %59 = load ptr, ptr %7, align 8
  %60 = getelementptr inbounds %struct.Type_, ptr %59, i32 0, i32 7
  %61 = getelementptr inbounds %struct.TypeArray, ptr %60, i32 0, i32 0
  %62 = load ptr, ptr %61, align 8
  %63 = load ptr, ptr @type_bool, align 8
  %64 = icmp eq ptr %62, %63
  br i1 %64, label %65, label %82

65:                                               ; preds = %58
  %66 = load ptr, ptr %6, align 8
  %67 = call ptr @LLVMTypeOf(ptr noundef %66)
  store ptr %67, ptr %10, align 8
  %68 = load ptr, ptr %10, align 8
  %69 = call ptr @LLVMGetElementType(ptr noundef %68)
  store ptr %69, ptr %11, align 8
  %70 = load ptr, ptr %10, align 8
  %71 = call ptr @LLVMGetTypeContext(ptr noundef %70)
  store ptr %71, ptr %12, align 8
  %72 = load ptr, ptr %11, align 8
  %73 = load ptr, ptr %12, align 8
  %74 = call ptr @LLVMIntTypeInContext(ptr noundef %73, i32 noundef 1)
  %75 = icmp eq ptr %72, %74
  br i1 %75, label %76, label %81

76:                                               ; preds = %65
  %77 = load ptr, ptr %5, align 8
  %78 = load i8, ptr %77, align 8
  %79 = and i8 %78, -32
  %80 = or i8 %79, 4
  store i8 %80, ptr %77, align 8
  br label %81

81:                                               ; preds = %76, %65
  br label %82

82:                                               ; preds = %81, %58, %56
  ret void
}