; Function Attrs: nounwind uwtable
define dso_local void @llvm_value_set(ptr noundef captures(none) initializes((4, 24)) %0, ptr noundef %1, ptr noundef readonly captures(none) %2) local_unnamed_addr #0 {
  %4 = tail call fastcc ptr @type_lowering(ptr noundef %2)
  %5 = getelementptr inbounds nuw i8, ptr %0, i64 16
  store ptr %1, ptr %5, align 8
  %6 = tail call i32 @type_abi_alignment(ptr noundef %4) #3
  %7 = getelementptr inbounds nuw i8, ptr %0, i64 4
  store i32 %6, ptr %7, align 4
  %8 = load i8, ptr %0, align 8
  %9 = and i8 %8, -32
  store i8 %9, ptr %0, align 8
  %10 = getelementptr inbounds nuw i8, ptr %0, i64 8
  store ptr %4, ptr %10, align 8
  %11 = load ptr, ptr @type_bool, align 8
  %12 = icmp eq ptr %4, %11
  br i1 %12, label %13, label %22

13:                                               ; preds = %3
  %14 = tail call ptr @LLVMTypeOf(ptr noundef %1) #3
  %15 = tail call ptr @LLVMGetTypeContext(ptr noundef %14) #3
  %16 = tail call ptr @LLVMIntTypeInContext(ptr noundef %15, i32 noundef 1) #3
  %17 = icmp eq ptr %14, %16
  br i1 %17, label %18, label %22

18:                                               ; preds = %13
  %19 = load i8, ptr %0, align 8
  %20 = and i8 %19, -32
  %21 = or disjoint i8 %20, 3
  store i8 %21, ptr %0, align 8
  br label %22

22:                                               ; preds = %13, %18, %3
  %23 = load i32, ptr %4, align 8
  %24 = add i32 %23, -37
  %25 = icmp ult i32 %24, 2
  br i1 %25, label %26, label %41

26:                                               ; preds = %22
  %27 = getelementptr inbounds nuw i8, ptr %4, i64 56
  %28 = load ptr, ptr %27, align 8
  %29 = load ptr, ptr @type_bool, align 8
  %30 = icmp eq ptr %28, %29
  br i1 %30, label %31, label %41

31:                                               ; preds = %26
  %32 = tail call ptr @LLVMTypeOf(ptr noundef %1) #3
  %33 = tail call ptr @LLVMGetElementType(ptr noundef %32) #3
  %34 = tail call ptr @LLVMGetTypeContext(ptr noundef %32) #3
  %35 = tail call ptr @LLVMIntTypeInContext(ptr noundef %34, i32 noundef 1) #3
  %36 = icmp eq ptr %33, %35
  br i1 %36, label %37, label %41

37:                                               ; preds = %31
  %38 = load i8, ptr %0, align 8
  %39 = and i8 %38, -32
  %40 = or disjoint i8 %39, 4
  store i8 %40, ptr %0, align 8
  br label %41

41:                                               ; preds = %31, %37, %26, %22
  ret void
}